target datalayout = "e-m:e-p270:32:32-p271:32:32-p272:64:64-i64:64-i128:128-f80:128-n8:16:32:64-S128"
target triple = "x86_64-pc-linux-gnu"

%struct.strbuf = type { i64, i64, ptr }
%struct.object_id = type { [32 x i8], i32 }
%struct.grab_1st_switch_cbdata = type { %struct.strbuf, %struct.object_id }

@.str.1 = private unnamed_addr constant [5 x i8] c"HEAD\00", align 1
@strbuf_slopbuf = external global [0 x i8], align 1
@.str.34 = private unnamed_addr constant [11 x i8] c"./strbuf.h\00", align 1
@.str.35 = private unnamed_addr constant [30 x i8] c"strbuf_setlen() beyond buffer\00", align 1
@default_abbrev = external global i32, align 4
@.str.46 = private unnamed_addr constant [23 x i8] c"checkout: moving from \00", align 1
@.str.47 = private unnamed_addr constant [5 x i8] c" to \00", align 1

; Function Attrs: inlinehint nounwind uwtable
define internal void @oidcpy(ptr noundef %0, ptr noundef %1) #8 {
  %3 = alloca ptr, align 8
  %4 = alloca ptr, align 8
  store ptr %0, ptr %3, align 8, !tbaa !200
  store ptr %1, ptr %4, align 8, !tbaa !200
  %5 = load ptr, ptr %3, align 8, !tbaa !200
  %6 = getelementptr inbounds nuw %struct.object_id, ptr %5, i32 0, i32 0
  %7 = getelementptr inbounds [32 x i8], ptr %6, i64 0, i64 0
  %8 = load ptr, ptr %4, align 8, !tbaa !200
  %9 = getelementptr inbounds nuw %struct.object_id, ptr %8, i32 0, i32 0
  %10 = getelementptr inbounds [32 x i8], ptr %9, i64 0, i64 0
  call void @llvm.memcpy.p0.p0.i64(ptr align 4 %7, ptr align 4 %10, i64 32, i1 false)
  %11 = load ptr, ptr %4, align 8, !tbaa !200
  %12 = getelementptr inbounds nuw %struct.object_id, ptr %11, i32 0, i32 1
  %13 = load i32, ptr %12, align 4, !tbaa !201
  %14 = load ptr, ptr %3, align 8, !tbaa !200
  %15 = getelementptr inbounds nuw %struct.object_id, ptr %14, i32 0, i32 1
  store i32 %13, ptr %15, align 4, !tbaa !201
  ret void
}

; Function Attrs: inlinehint nounwind uwtable
define internal void @strbuf_setlen(ptr noundef %0, i64 noundef %1) #8 {
  %3 = alloca ptr, align 8
  %4 = alloca i64, align 8
  store ptr %0, ptr %3, align 8, !tbaa !186
  store i64 %1, ptr %4, align 8, !tbaa !153
  %5 = load i64, ptr %4, align 8, !tbaa !153
  %6 = load ptr, ptr %3, align 8, !tbaa !186
  %7 = getelementptr inbounds nuw %struct.strbuf, ptr %6, i32 0, i32 0
  %8 = load i64, ptr %7, align 8, !tbaa !244
  %9 = icmp ne i64 %8, 0
  br i1 %9, label %10, label %15

10:                                               ; preds = %2
  %11 = load ptr, ptr %3, align 8, !tbaa !186
  %12 = getelementptr inbounds nuw %struct.strbuf, ptr %11, i32 0, i32 0
  %13 = load i64, ptr %12, align 8, !tbaa !244
  %14 = sub i64 %13, 1
  br label %16

15:                                               ; preds = %2
  br label %16

16:                                               ; preds = %15, %10
  %17 = phi i64 [ %14, %10 ], [ 0, %15 ]
  %18 = icmp ugt i64 %5, %17
  br i1 %18, label %19, label %20

19:                                               ; preds = %16
  call void (ptr, i32, ptr, ...) @BUG_fl(ptr noundef @.str.34, i32 noundef 167, ptr noundef @.str.35) #14
  unreachable

20:                                               ; preds = %16
  %21 = load i64, ptr %4, align 8, !tbaa !153
  %22 = load ptr, ptr %3, align 8, !tbaa !186
  %23 = getelementptr inbounds nuw %struct.strbuf, ptr %22, i32 0, i32 1
  store i64 %21, ptr %23, align 8, !tbaa !15
  %24 = load ptr, ptr %3, align 8, !tbaa !186
  %25 = getelementptr inbounds nuw %struct.strbuf, ptr %24, i32 0, i32 2
  %26 = load ptr, ptr %25, align 8, !tbaa !29
  %27 = icmp ne ptr %26, @strbuf_slopbuf
  br i1 %27, label %28, label %34

28:                                               ; preds = %20
  %29 = load ptr, ptr %3, align 8, !tbaa !186
  %30 = getelementptr inbounds nuw %struct.strbuf, ptr %29, i32 0, i32 2
  %31 = load ptr, ptr %30, align 8, !tbaa !29
  %32 = load i64, ptr %4, align 8, !tbaa !153
  %33 = getelementptr inbounds nuw i8, ptr %31, i64 %32
  store i8 0, ptr %33, align 1, !tbaa !30
  br label %35

34:                                               ; preds = %20
  br label %35

35:                                               ; preds = %34, %28
  ret void
}

; Function Attrs: inlinehint nounwind uwtable
define internal zeroext i1 @skip_prefix(ptr noundef %0, ptr noundef %1, ptr noundef %2) #8 {
  %4 = alloca i1, align 1
  %5 = alloca ptr, align 8
  %6 = alloca ptr, align 8
  %7 = alloca ptr, align 8
  store ptr %0, ptr %5, align 8, !tbaa !9
  store ptr %1, ptr %6, align 8, !tbaa !9
  store ptr %2, ptr %7, align 8, !tbaa !278
  br label %8

8:                                                ; preds = %16, %3
  %9 = load ptr, ptr %6, align 8, !tbaa !9
  %10 = load i8, ptr %9, align 1, !tbaa !30
  %11 = icmp ne i8 %10, 0
  br i1 %11, label %15, label %12

12:                                               ; preds = %8
  %13 = load ptr, ptr %5, align 8, !tbaa !9
  %14 = load ptr, ptr %7, align 8, !tbaa !278
  store ptr %13, ptr %14, align 8, !tbaa !9
  store i1 true, ptr %4, align 1
  br label %27

15:                                               ; preds = %8
  br label %16

16:                                               ; preds = %15
  %17 = load ptr, ptr %5, align 8, !tbaa !9
  %18 = getelementptr inbounds nuw i8, ptr %17, i32 1
  store ptr %18, ptr %5, align 8, !tbaa !9
  %19 = load i8, ptr %17, align 1, !tbaa !30
  %20 = sext i8 %19 to i32
  %21 = load ptr, ptr %6, align 8, !tbaa !9
  %22 = getelementptr inbounds nuw i8, ptr %21, i32 1
  store ptr %22, ptr %6, align 8, !tbaa !9
  %23 = load i8, ptr %21, align 1, !tbaa !30
  %24 = sext i8 %23 to i32
  %25 = icmp eq i32 %20, %24
  br i1 %25, label %8, label %26, !llvm.loop !279

26:                                               ; preds = %16
  store i1 false, ptr %4, align 1
  br label %27

27:                                               ; preds = %26, %12
  %28 = load i1, ptr %4, align 1
  ret i1 %28
}

; Function Attrs: nounwind uwtable
define internal i32 @grab_1st_switch(ptr noundef %0, ptr noundef %1, ptr noundef %2, i64 noundef %3, i32 noundef %4, ptr noundef %5, ptr noundef %6) #0 {
  %8 = alloca i32, align 4
  %9 = alloca ptr, align 8
  %10 = alloca ptr, align 8
  %11 = alloca ptr, align 8
  %12 = alloca i64, align 8
  %13 = alloca i32, align 4
  %14 = alloca ptr, align 8
  %15 = alloca ptr, align 8
  %16 = alloca ptr, align 8
  %17 = alloca ptr, align 8
  %18 = alloca ptr, align 8
  %19 = alloca i32, align 4
  store ptr %0, ptr %9, align 8, !tbaa !200
  store ptr %1, ptr %10, align 8, !tbaa !200
  store ptr %2, ptr %11, align 8, !tbaa !9
  store i64 %3, ptr %12, align 8, !tbaa !153
  store i32 %4, ptr %13, align 4, !tbaa !11
  store ptr %5, ptr %14, align 8, !tbaa !9
  store ptr %6, ptr %15, align 8, !tbaa !249
  call void @llvm.lifetime.start.p0(i64 8, ptr %16) #12
  %20 = load ptr, ptr %15, align 8, !tbaa !249
  store ptr %20, ptr %16, align 8, !tbaa !280
  call void @llvm.lifetime.start.p0(i64 8, ptr %17) #12
  store ptr null, ptr %17, align 8, !tbaa !9
  call void @llvm.lifetime.start.p0(i64 8, ptr %18) #12
  %21 = load ptr, ptr %14, align 8, !tbaa !9
  %22 = call zeroext i1 @skip_prefix(ptr noundef %21, ptr noundef @.str.46, ptr noundef %14)
  br i1 %22, label %24, label %23

23:                                               ; preds = %7
  store i32 0, ptr %8, align 4
  store i32 1, ptr %19, align 4
  br label %62

24:                                               ; preds = %7
  %25 = load ptr, ptr %14, align 8, !tbaa !9
  %26 = call ptr @strstr(ptr noundef %25, ptr noundef @.str.47) #13
  store ptr %26, ptr %17, align 8, !tbaa !9
  %27 = load ptr, ptr %17, align 8, !tbaa !9
  %28 = icmp ne ptr %27, null
  br i1 %28, label %30, label %29

29:                                               ; preds = %24
  store i32 0, ptr %8, align 4
  store i32 1, ptr %19, align 4
  br label %62

30:                                               ; preds = %24
  %31 = load ptr, ptr %17, align 8, !tbaa !9
  %32 = getelementptr inbounds nuw i8, ptr %31, i64 4
  store ptr %32, ptr %17, align 8, !tbaa !9
  %33 = load ptr, ptr %16, align 8, !tbaa !280
  %34 = getelementptr inbounds nuw %struct.grab_1st_switch_cbdata, ptr %33, i32 0, i32 0
  call void @strbuf_setlen(ptr noundef %34, i64 noundef 0)
  %35 = load ptr, ptr %16, align 8, !tbaa !280
  %36 = getelementptr inbounds nuw %struct.grab_1st_switch_cbdata, ptr %35, i32 0, i32 1
  %37 = load ptr, ptr %10, align 8, !tbaa !200
  call void @oidcpy(ptr noundef %36, ptr noundef %37)
  %38 = load ptr, ptr %17, align 8, !tbaa !9
  %39 = call ptr @strchrnul(ptr noundef %38, i32 noundef 10) #13
  store ptr %39, ptr %18, align 8, !tbaa !9
  %40 = load ptr, ptr %16, align 8, !tbaa !280
  %41 = getelementptr inbounds nuw %struct.grab_1st_switch_cbdata, ptr %40, i32 0, i32 0
  %42 = load ptr, ptr %17, align 8, !tbaa !9
  %43 = load ptr, ptr %18, align 8, !tbaa !9
  %44 = load ptr, ptr %17, align 8, !tbaa !9
  %45 = ptrtoint ptr %43 to i64
  %46 = ptrtoint ptr %44 to i64
  %47 = sub i64 %45, %46
  call void @strbuf_add(ptr noundef %41, ptr noundef %42, i64 noundef %47)
  %48 = load ptr, ptr %16, align 8, !tbaa !280
  %49 = getelementptr inbounds nuw %struct.grab_1st_switch_cbdata, ptr %48, i32 0, i32 0
  %50 = getelementptr inbounds nuw %struct.strbuf, ptr %49, i32 0, i32 2
  %51 = load ptr, ptr %50, align 8, !tbaa !202
  %52 = call i32 @strcmp(ptr noundef %51, ptr noundef @.str.1) #13
  %53 = icmp ne i32 %52, 0
  br i1 %53, label %61, label %54

54:                                               ; preds = %30
  %55 = load ptr, ptr %16, align 8, !tbaa !280
  %56 = getelementptr inbounds nuw %struct.grab_1st_switch_cbdata, ptr %55, i32 0, i32 0
  call void @strbuf_setlen(ptr noundef %56, i64 noundef 0)
  %57 = load ptr, ptr %16, align 8, !tbaa !280
  %58 = getelementptr inbounds nuw %struct.grab_1st_switch_cbdata, ptr %57, i32 0, i32 0
  %59 = load ptr, ptr %10, align 8, !tbaa !200
  %60 = load i32, ptr @default_abbrev, align 4, !tbaa !11
  call void @strbuf_add_unique_abbrev(ptr noundef %58, ptr noundef %59, i32 noundef %60)
  br label %61

61:                                               ; preds = %54, %30
  store i32 1, ptr %8, align 4
  store i32 1, ptr %19, align 4
  br label %62

62:                                               ; preds = %61, %29, %23
  call void @llvm.lifetime.end.p0(i64 8, ptr %18) #12
  call void @llvm.lifetime.end.p0(i64 8, ptr %17) #12
  call void @llvm.lifetime.end.p0(i64 8, ptr %16) #12
  %63 = load i32, ptr %8, align 4
  ret i32 %63
}