; Function Attrs: nounwind uwtable
define internal range(i32 0, 2) i32 @grab_1st_switch(ptr readnone captures(none) %0, ptr noundef %1, ptr readnone captures(none) %2, i64 %3, i32 %4, ptr noundef %5, ptr noundef %6) #0 {
  %scevgep = getelementptr i8, ptr %5, i64 22
  br label %8

8:                                                ; preds = %9, %7
  %.07.i = phi ptr [ %5, %7 ], [ %11, %9 ]
  %.06.i.idx = phi i64 [ 0, %7 ], [ %.06.i.add, %9 ]
  %exitcond = icmp eq i64 %.06.i.idx, 22
  br i1 %exitcond, label %14, label %9

9:                                                ; preds = %8
  %.06.i.ptr = getelementptr inbounds nuw i8, ptr @.str.46, i64 %.06.i.idx
  %10 = load i8, ptr %.06.i.ptr, align 1, !tbaa !26
  %11 = getelementptr inbounds nuw i8, ptr %.07.i, i64 1
  %12 = load i8, ptr %.07.i, align 1, !tbaa !26
  %.06.i.add = add nuw nsw i64 %.06.i.idx, 1
  %13 = icmp eq i8 %12, %10
  br i1 %13, label %8, label %skip_prefix.exit, !llvm.loop !176

14:                                               ; preds = %8
  %15 = tail call ptr @strstr(ptr noundef nonnull dereferenceable(1) %scevgep, ptr noundef nonnull dereferenceable(1) @.str.47) #21
  %.not = icmp eq ptr %15, null
  br i1 %.not, label %skip_prefix.exit, label %16

16:                                               ; preds = %14
  %17 = getelementptr inbounds nuw i8, ptr %15, i64 4
  %18 = getelementptr inbounds nuw i8, ptr %6, i64 8
  store i64 0, ptr %18, align 8, !tbaa !4
  %19 = getelementptr inbounds nuw i8, ptr %6, i64 16
  %20 = load ptr, ptr %19, align 8, !tbaa !25
  %.not9.i = icmp eq ptr %20, @strbuf_slopbuf
  br i1 %.not9.i, label %strbuf_setlen.exit, label %21

21:                                               ; preds = %16
  store i8 0, ptr %20, align 1, !tbaa !26
  br label %strbuf_setlen.exit

strbuf_setlen.exit:                               ; preds = %16, %21
  %22 = getelementptr inbounds nuw i8, ptr %6, i64 24
  tail call void @llvm.memcpy.p0.p0.i64(ptr noundef nonnull align 4 dereferenceable(32) %22, ptr noundef nonnull readonly align 4 dereferenceable(32) %1, i64 32, i1 false)
  %23 = getelementptr inbounds nuw i8, ptr %1, i64 32
  %24 = load i32, ptr %23, align 4, !tbaa !138
  %25 = getelementptr inbounds nuw i8, ptr %6, i64 56
  store i32 %24, ptr %25, align 4, !tbaa !138
  %26 = tail call ptr @strchrnul(ptr noundef nonnull %17, i32 noundef 10) #21
  %27 = ptrtoint ptr %26 to i64
  %28 = ptrtoint ptr %17 to i64
  %29 = sub i64 %27, %28
  tail call void @strbuf_add(ptr noundef nonnull %6, ptr noundef nonnull %17, i64 noundef %29) #20
  %30 = load ptr, ptr %19, align 8, !tbaa !173
  %31 = tail call i32 @strcmp(ptr noundef nonnull dereferenceable(1) %30, ptr noundef nonnull dereferenceable(5) @.str.1) #21
  %.not16 = icmp eq i32 %31, 0
  br i1 %.not16, label %32, label %skip_prefix.exit

32:                                               ; preds = %strbuf_setlen.exit
  store i64 0, ptr %18, align 8, !tbaa !4
  %.not9.i18 = icmp eq ptr %30, @strbuf_slopbuf
  br i1 %.not9.i18, label %strbuf_setlen.exit19, label %33

33:                                               ; preds = %32
  store i8 0, ptr %30, align 1, !tbaa !26
  br label %strbuf_setlen.exit19

strbuf_setlen.exit19:                             ; preds = %32, %33
  %34 = load i32, ptr @default_abbrev, align 4, !tbaa !128
  tail call void @strbuf_add_unique_abbrev(ptr noundef nonnull %6, ptr noundef nonnull %1, i32 noundef %34) #20
  br label %skip_prefix.exit

skip_prefix.exit:                                 ; preds = %9, %strbuf_setlen.exit, %strbuf_setlen.exit19, %14
  %.0 = phi i32 [ 0, %14 ], [ 1, %strbuf_setlen.exit19 ], [ 1, %strbuf_setlen.exit ], [ 0, %9 ]
  ret i32 %.0
}